	.file	"11_10.cpp"
 # GNU C++14 (x86_64-posix-seh-rev0, Built by MinGW-W64 project) version 8.1.0 (x86_64-w64-mingw32)
 #	compiled by GNU C version 8.1.0, GMP version 6.1.2, MPFR version 4.0.1, MPC version 1.1.0, isl version isl-0.18-GMP

 # GGC heuristics: --param ggc-min-expand=100 --param ggc-min-heapsize=131072
 # options passed: 
 # -iprefix D:/MinGW/mingw64/bin/../lib/gcc/x86_64-w64-mingw32/8.1.0/
 # -D_REENTRANT 11_10.cpp -mtune=core2 -march=nocona -g -fverbose-asm
 # options enabled:  -faggressive-loop-optimizations
 # -fasynchronous-unwind-tables -fauto-inc-dec -fchkp-check-incomplete-type
 # -fchkp-check-read -fchkp-check-write -fchkp-instrument-calls
 # -fchkp-narrow-bounds -fchkp-optimize -fchkp-store-bounds
 # -fchkp-use-static-bounds -fchkp-use-static-const-bounds
 # -fchkp-use-wrappers -fcommon -fdelete-null-pointer-checks
 # -fdwarf2-cfi-asm -fearly-inlining -feliminate-unused-debug-types
 # -fexceptions -ffp-int-builtin-inexact -ffunction-cse -fgcse-lm
 # -fgnu-runtime -fgnu-unique -fident -finline-atomics -fira-hoist-pressure
 # -fira-share-save-slots -fira-share-spill-slots -fivopts
 # -fkeep-inline-dllexport -fkeep-static-consts -fleading-underscore
 # -flifetime-dse -flto-odr-type-merging -fmath-errno -fmerge-debug-strings
 # -fpeephole -fpic -fplt -fprefetch-loop-arrays -freg-struct-return
 # -fsched-critical-path-heuristic -fsched-dep-count-heuristic
 # -fsched-group-heuristic -fsched-interblock -fsched-last-insn-heuristic
 # -fsched-rank-heuristic -fsched-spec -fsched-spec-insn-heuristic
 # -fsched-stalled-insns-dep -fschedule-fusion -fsemantic-interposition
 # -fset-stack-executable -fshow-column -fshrink-wrap-separate
 # -fsigned-zeros -fsplit-ivs-in-unroller -fssa-backprop -fstdarg-opt
 # -fstrict-volatile-bitfields -fsync-libcalls -ftrapping-math
 # -ftree-cselim -ftree-forwprop -ftree-loop-if-convert -ftree-loop-im
 # -ftree-loop-ivcanon -ftree-loop-optimize -ftree-parallelize-loops=
 # -ftree-phiprop -ftree-reassoc -ftree-scev-cprop -funit-at-a-time
 # -funwind-tables -fverbose-asm -fzero-initialized-in-bss
 # -m128bit-long-double -m64 -m80387 -maccumulate-outgoing-args
 # -malign-double -malign-stringops -mcx16 -mfancy-math-387 -mfentry
 # -mfp-ret-in-387 -mfxsr -mieee-fp -mlong-double-80 -mmmx -mms-bitfields
 # -mno-sse4 -mpush-args -mred-zone -msse -msse2 -msse3 -mstack-arg-probe
 # -mstackrealign -mvzeroupper

	.text
.Ltext0:
	.cfi_sections	.debug_frame
	.section .rdata,"dr"
_ZStL19piecewise_construct:
	.space 1
.lcomm _ZStL8__ioinit,1,1
	.text
	.globl	_Z1fi
	.def	_Z1fi;	.scl	2;	.type	32;	.endef
	.seh_proc	_Z1fi
_Z1fi:
.LFB1573:
	.file 1 "11_10.cpp"
	.loc 1 4 13
	.cfi_startproc
	pushq	%rbp	 #
	.seh_pushreg	%rbp
	.cfi_def_cfa_offset 16
	.cfi_offset 6, -16
	movq	%rsp, %rbp	 #,
	.seh_setframe	%rbp, 0
	.cfi_def_cfa_register 6
	.seh_endprologue
	movl	%ecx, 16(%rbp)	 # i, i
 # 11_10.cpp:5:     i++;
	.loc 1 5 6
	addl	$1, 16(%rbp)	 #, i
 # 11_10.cpp:6:     return i;
	.loc 1 6 12
	movl	16(%rbp), %eax	 # i, _3
 # 11_10.cpp:7: }
	.loc 1 7 1
	popq	%rbp	 #
	.cfi_restore 6
	.cfi_def_cfa 7, 8
	ret	
	.cfi_endproc
.LFE1573:
	.seh_endproc
	.def	__main;	.scl	2;	.type	32;	.endef
	.globl	main
	.def	main;	.scl	2;	.type	32;	.endef
	.seh_proc	main
main:
.LFB1574:
	.loc 1 9 11
	.cfi_startproc
	pushq	%rbp	 #
	.seh_pushreg	%rbp
	.cfi_def_cfa_offset 16
	.cfi_offset 6, -16
	movq	%rsp, %rbp	 #,
	.seh_setframe	%rbp, 0
	.cfi_def_cfa_register 6
	subq	$32, %rsp	 #,
	.seh_stackalloc	32
	.seh_endprologue
 # 11_10.cpp:9: int main(){
	.loc 1 9 11
	call	__main	 #
.LVL0:
 # 11_10.cpp:10:     f(1);
	.loc 1 10 6
	movl	$1, %ecx	 #,
	call	_Z1fi	 #
 # 11_10.cpp:13: }
	.loc 1 13 1
	movl	$0, %eax	 #, _3
	addq	$32, %rsp	 #,
	popq	%rbp	 #
	.cfi_restore 6
	.cfi_def_cfa 7, 8
	ret	
	.cfi_endproc
.LFE1574:
	.seh_endproc
	.def	__tcf_0;	.scl	3;	.type	32;	.endef
	.seh_proc	__tcf_0
__tcf_0:
.LFB2056:
	.file 2 "D:/MinGW/mingw64/lib/gcc/x86_64-w64-mingw32/8.1.0/include/c++/iostream"
	.loc 2 74 25
	.cfi_startproc
	pushq	%rbp	 #
	.seh_pushreg	%rbp
	.cfi_def_cfa_offset 16
	.cfi_offset 6, -16
	movq	%rsp, %rbp	 #,
	.seh_setframe	%rbp, 0
	.cfi_def_cfa_register 6
	subq	$32, %rsp	 #,
	.seh_stackalloc	32
	.seh_endprologue
 # D:/MinGW/mingw64/lib/gcc/x86_64-w64-mingw32/8.1.0/include/c++/iostream:74:   static ios_base::Init __ioinit;
	.loc 2 74 25
	leaq	_ZStL8__ioinit(%rip), %rcx	 #,
	call	_ZNSt8ios_base4InitD1Ev	 #
	nop	
	addq	$32, %rsp	 #,
	popq	%rbp	 #
	.cfi_restore 6
	.cfi_def_cfa 7, 8
	ret	
	.cfi_endproc
.LFE2056:
	.seh_endproc
	.def	_Z41__static_initialization_and_destruction_0ii;	.scl	3;	.type	32;	.endef
	.seh_proc	_Z41__static_initialization_and_destruction_0ii
_Z41__static_initialization_and_destruction_0ii:
.LFB2055:
	.loc 1 13 1
	.cfi_startproc
	pushq	%rbp	 #
	.seh_pushreg	%rbp
	.cfi_def_cfa_offset 16
	.cfi_offset 6, -16
	movq	%rsp, %rbp	 #,
	.seh_setframe	%rbp, 0
	.cfi_def_cfa_register 6
	subq	$32, %rsp	 #,
	.seh_stackalloc	32
	.seh_endprologue
	movl	%ecx, 16(%rbp)	 # __initialize_p, __initialize_p
	movl	%edx, 24(%rbp)	 # __priority, __priority
 # 11_10.cpp:13: }
	.loc 1 13 1
	cmpl	$1, 16(%rbp)	 #, __initialize_p
	jne	.L8	 #,
 # 11_10.cpp:13: }
	.loc 1 13 1 is_stmt 0 discriminator 1
	cmpl	$65535, 24(%rbp)	 #, __priority
	jne	.L8	 #,
 # D:/MinGW/mingw64/lib/gcc/x86_64-w64-mingw32/8.1.0/include/c++/iostream:74:   static ios_base::Init __ioinit;
	.loc 2 74 25 is_stmt 1
	leaq	_ZStL8__ioinit(%rip), %rcx	 #,
	call	_ZNSt8ios_base4InitC1Ev	 #
	leaq	__tcf_0(%rip), %rcx	 #,
	call	atexit	 #
.L8:
 # 11_10.cpp:13: }
	.loc 1 13 1
	nop	
	addq	$32, %rsp	 #,
	popq	%rbp	 #
	.cfi_restore 6
	.cfi_def_cfa 7, 8
	ret	
	.cfi_endproc
.LFE2055:
	.seh_endproc
	.def	_GLOBAL__sub_I__Z1fi;	.scl	3;	.type	32;	.endef
	.seh_proc	_GLOBAL__sub_I__Z1fi
_GLOBAL__sub_I__Z1fi:
.LFB2057:
	.loc 1 13 1
	.cfi_startproc
	pushq	%rbp	 #
	.seh_pushreg	%rbp
	.cfi_def_cfa_offset 16
	.cfi_offset 6, -16
	movq	%rsp, %rbp	 #,
	.seh_setframe	%rbp, 0
	.cfi_def_cfa_register 6
	subq	$32, %rsp	 #,
	.seh_stackalloc	32
	.seh_endprologue
 # 11_10.cpp:13: }
	.loc 1 13 1
	movl	$65535, %edx	 #,
	movl	$1, %ecx	 #,
	call	_Z41__static_initialization_and_destruction_0ii	 #
	nop	
	addq	$32, %rsp	 #,
	popq	%rbp	 #
	.cfi_restore 6
	.cfi_def_cfa 7, 8
	ret	
	.cfi_endproc
.LFE2057:
	.seh_endproc
	.section	.ctors,"w"
	.align 8
	.quad	_GLOBAL__sub_I__Z1fi
	.text
.Letext0:
	.file 3 "D:/MinGW/mingw64/lib/gcc/x86_64-w64-mingw32/8.1.0/include/c++/cwchar"
	.file 4 "D:/MinGW/mingw64/lib/gcc/x86_64-w64-mingw32/8.1.0/include/c++/new"
	.file 5 "D:/MinGW/mingw64/lib/gcc/x86_64-w64-mingw32/8.1.0/include/c++/bits/exception_ptr.h"
	.file 6 "D:/MinGW/mingw64/lib/gcc/x86_64-w64-mingw32/8.1.0/include/c++/type_traits"
	.file 7 "D:/MinGW/mingw64/lib/gcc/x86_64-w64-mingw32/8.1.0/include/c++/bits/cpp_type_traits.h"
	.file 8 "D:/MinGW/mingw64/lib/gcc/x86_64-w64-mingw32/8.1.0/include/c++/bits/stl_pair.h"
	.file 9 "D:/MinGW/mingw64/lib/gcc/x86_64-w64-mingw32/8.1.0/include/c++/debug/debug.h"
	.file 10 "D:/MinGW/mingw64/lib/gcc/x86_64-w64-mingw32/8.1.0/include/c++/bits/char_traits.h"
	.file 11 "D:/MinGW/mingw64/lib/gcc/x86_64-w64-mingw32/8.1.0/include/c++/x86_64-w64-mingw32/bits/c++config.h"
	.file 12 "D:/MinGW/mingw64/lib/gcc/x86_64-w64-mingw32/8.1.0/include/c++/cstdint"
	.file 13 "D:/MinGW/mingw64/lib/gcc/x86_64-w64-mingw32/8.1.0/include/c++/clocale"
	.file 14 "D:/MinGW/mingw64/lib/gcc/x86_64-w64-mingw32/8.1.0/include/c++/cstdlib"
	.file 15 "D:/MinGW/mingw64/lib/gcc/x86_64-w64-mingw32/8.1.0/include/c++/cstdio"
	.file 16 "D:/MinGW/mingw64/lib/gcc/x86_64-w64-mingw32/8.1.0/include/c++/bits/basic_string.h"
	.file 17 "D:/MinGW/mingw64/lib/gcc/x86_64-w64-mingw32/8.1.0/include/c++/system_error"
	.file 18 "D:/MinGW/mingw64/lib/gcc/x86_64-w64-mingw32/8.1.0/include/c++/bits/ios_base.h"
	.file 19 "D:/MinGW/mingw64/lib/gcc/x86_64-w64-mingw32/8.1.0/include/c++/cwctype"
	.file 20 "D:/MinGW/mingw64/lib/gcc/x86_64-w64-mingw32/8.1.0/include/c++/iosfwd"
	.file 21 "D:/MinGW/mingw64/lib/gcc/x86_64-w64-mingw32/8.1.0/include/c++/bits/predefined_ops.h"
	.file 22 "D:/MinGW/mingw64/lib/gcc/x86_64-w64-mingw32/8.1.0/include/c++/ext/new_allocator.h"
	.file 23 "D:/MinGW/mingw64/lib/gcc/x86_64-w64-mingw32/8.1.0/include/c++/ext/numeric_traits.h"
	.file 24 "D:/MinGW/mingw64/x86_64-w64-mingw32/include/crtdefs.h"
	.file 25 "D:/MinGW/mingw64/x86_64-w64-mingw32/include/locale.h"
	.file 26 "D:/MinGW/mingw64/x86_64-w64-mingw32/include/wchar.h"
	.file 27 "D:/MinGW/mingw64/x86_64-w64-mingw32/include/swprintf.inl"
	.file 28 "D:/MinGW/mingw64/x86_64-w64-mingw32/include/stdint.h"
	.file 29 "D:/MinGW/mingw64/x86_64-w64-mingw32/include/stdio.h"
	.file 30 "D:/MinGW/mingw64/x86_64-w64-mingw32/include/ctype.h"
	.file 31 "D:/MinGW/mingw64/x86_64-w64-mingw32/include/process.h"
	.file 32 "D:/MinGW/mingw64/x86_64-w64-mingw32/include/pthread.h"
	.file 33 "D:/MinGW/mingw64/lib/gcc/x86_64-w64-mingw32/8.1.0/include/c++/x86_64-w64-mingw32/bits/atomic_word.h"
	.file 34 "D:/MinGW/mingw64/x86_64-w64-mingw32/include/stdlib.h"
	.file 35 "D:/MinGW/mingw64/x86_64-w64-mingw32/include/malloc.h"
	.file 36 "D:/MinGW/mingw64/x86_64-w64-mingw32/include/wctype.h"
	.file 37 "<built-in>"